; Function Attrs: nofree norecurse nosync nounwind memory(argmem: read) uwtable
define range(i32 0, 2) i32 @isCompletelyPositiveMap2(ptr noundef readonly captures(none) %0, i32 noundef %1) local_unnamed_addr #6 {
  %3 = icmp sgt i32 %1, 0
  br i1 %3, label %.preheader69.us.preheader, label %.loopexit

.preheader69.us.preheader:                        ; preds = %2
  %wide.trip.count = zext nneg i32 %1 to i64
  br label %.preheader69.us

.preheader69.us:                                  ; preds = %.preheader69.us.preheader, %.critedge.split.us.us
  %.not85 = phi i1 [ true, %.preheader69.us.preheader ], [ false, %.critedge.split.us.us ]
  %indvars.iv97 = phi i64 [ 0, %.preheader69.us.preheader ], [ 1, %.critedge.split.us.us ]
  br label %.preheader68.us.us

.preheader68.us.us:                               ; preds = %24, %.preheader69.us
  %.not84 = phi i1 [ false, %24 ], [ true, %.preheader69.us ]
  %indvars.iv94 = phi i64 [ 1, %24 ], [ 0, %.preheader69.us ]
  br label %.preheader.us.us

4:                                                ; preds = %5
  %indvars.iv.next92 = add nuw nsw i64 %indvars.iv91, 1
  %exitcond.not = icmp eq i64 %indvars.iv.next92, %wide.trip.count
  br i1 %exitcond.not, label %._crit_edge.us.us, label %.preheader.us.us

5:                                                ; preds = %.preheader.us.us, %5
  %6 = phi i1 [ true, %.preheader.us.us ], [ false, %5 ]
  %indvars.iv = phi i64 [ 0, %.preheader.us.us ], [ 1, %5 ]
  %.16173.us.us = phi double [ %.06076.us.us, %.preheader.us.us ], [ %21, %5 ]
  %.16372.us.us = phi double [ %.06275.us.us, %.preheader.us.us ], [ %17, %5 ]
  %7 = getelementptr inbounds nuw [2 x [2 x double]], ptr %22, i64 0, i64 %indvars.iv, i64 %indvars.iv97
  %8 = load double, ptr %7, align 8, !tbaa !9
  %9 = getelementptr inbounds nuw [2 x [2 x double]], ptr %22, i64 0, i64 %indvars.iv, i64 %indvars.iv94
  %10 = load double, ptr %9, align 8, !tbaa !9
  %11 = getelementptr inbounds nuw [2 x [2 x double]], ptr %23, i64 0, i64 %indvars.iv, i64 %indvars.iv97
  %12 = load double, ptr %11, align 8, !tbaa !9
  %13 = getelementptr inbounds nuw [2 x [2 x double]], ptr %23, i64 0, i64 %indvars.iv, i64 %indvars.iv94
  %14 = load double, ptr %13, align 8, !tbaa !9
  %15 = fmul double %12, %14
  %16 = tail call double @llvm.fmuladd.f64(double %8, double %10, double %15)
  %17 = fadd double %.16372.us.us, %16
  %18 = fneg double %10
  %19 = fmul double %12, %18
  %20 = tail call double @llvm.fmuladd.f64(double %8, double %14, double %19)
  %21 = fadd double %.16173.us.us, %20
  br i1 %6, label %5, label %4

.preheader.us.us:                                 ; preds = %4, %.preheader68.us.us
  %indvars.iv91 = phi i64 [ %indvars.iv.next92, %4 ], [ 0, %.preheader68.us.us ]
  %.06076.us.us = phi double [ %21, %4 ], [ 0.000000e+00, %.preheader68.us.us ]
  %.06275.us.us = phi double [ %17, %4 ], [ 0.000000e+00, %.preheader68.us.us ]
  %22 = getelementptr inbounds nuw %struct.ComplexMatrix2, ptr %0, i64 %indvars.iv91
  %23 = getelementptr inbounds nuw i8, ptr %22, i64 32
  br label %5

24:                                               ; preds = %._crit_edge.us.us
  br i1 %.not84, label %.preheader68.us.us, label %.critedge.split.us.us

._crit_edge.us.us:                                ; preds = %4
  %25 = icmp eq i64 %indvars.iv97, %indvars.iv94
  %26 = uitofp i1 %25 to double
  %27 = fsub double %17, %26
  %28 = fmul double %27, %27
  %29 = tail call double @llvm.fmuladd.f64(double %21, double %21, double %28)
  %30 = fcmp ule double %29, 1.000000e-26
  br i1 %30, label %24, label %.loopexit

.critedge.split.us.us:                            ; preds = %24
  br i1 %.not85, label %.preheader69.us, label %.loopexit

.loopexit:                                        ; preds = %.critedge.split.us.us, %._crit_edge.us.us, %2
  %spec.select = phi i32 [ 0, %2 ], [ 0, %._crit_edge.us.us ], [ 1, %.critedge.split.us.us ]
  ret i32 %spec.select
}